target datalayout = "e-m:e-p270:32:32-p271:32:32-p272:64:64-i64:64-i128:128-f80:128-n8:16:32:64-S128"
target triple = "x86_64-unknown-linux-gnu"

%"class.sat::literal" = type { i32 }
%"class.arith::sls" = type <{ %"class.sat::local_search_plugin", ptr, ptr, ptr, %"struct.arith::sls::stats", [4 x i8], %"struct.arith::sls::config", %class.scoped_ptr_vector, %class.vector.0, %class.svector, i8, [7 x i8] }>
%"class.sat::local_search_plugin" = type { ptr }
%"struct.arith::sls::stats" = type { i32 }
%"struct.arith::sls::config" = type { double, i32, i32, i32, double }
%class.scoped_ptr_vector = type { %class.ptr_vector }
%class.ptr_vector = type { %class.vector }
%class.vector = type { ptr }
%class.vector.0 = type { ptr }
%class.svector = type { %class.vector.1 }
%class.vector.1 = type { ptr }
%"class.sat::extension" = type { ptr, i8, i32, %class.symbol, ptr }
%class.symbol = type { ptr }
%class.svector.69 = type { %class.vector.70 }
%class.vector.70 = type { ptr }
%"class.sat::clause_allocator" = type { %class.sat_allocator, %class.id_gen }
%class.sat_allocator = type { ptr, i64, %class.ptr_vector.99, ptr, [65 x %class.ptr_vector.101] }
%class.ptr_vector.99 = type { %class.vector.100 }
%class.vector.100 = type { ptr }
%class.ptr_vector.101 = type { %class.vector.102 }
%class.vector.102 = type { ptr }
%class.id_gen = type { i32, %class.svector.6 }
%class.svector.15 = type { %class.vector.16 }
%class.vector.16 = type { ptr }
%class.svector.109 = type { %class.vector.110 }
%class.vector.110 = type { ptr }
%class.vector.111 = type { ptr }
%class.svector.6 = type { %class.vector.7 }
%class.vector.7 = type { ptr }
%class.random_gen = type { i32 }
%class.stopwatch = type <{ %"class.std::chrono::time_point", %"class.std::chrono::duration", i8, [7 x i8] }>
%"class.std::chrono::time_point" = type { %"class.std::chrono::duration" }
%"class.std::chrono::duration" = type { i64 }
%class.approx_set_tpl = type { i32 }
%class.svector.19 = type { %class.vector.20 }
%class.vector.20 = type { ptr }
%"class.sat::solver" = type { %"class.sat::solver_core", i8, [7 x i8], %"struct.sat::config", %"struct.sat::stats", %class.scoped_ptr.202, %class.scoped_ptr.203, ptr, %"class.sat::drat", [2 x %"class.sat::clause_allocator"], i8, %class.random_gen, %"class.sat::cleaner", %class.svector.109, %"class.sat::model_converter", i8, %"class.sat::simplifier", %"class.sat::scc", %"class.sat::asymm_branch", %"class.sat::probing", i8, [7 x i8], %"class.sat::mus", %"class.sat::binspr", i8, i8, [6 x i8], %"class.sat::justification", %"class.sat::literal", %class.ptr_vector.217, %class.ptr_vector.217, i32, %class.svector.6, %class.svector.6, %class.svector.6, %class.svector.6, %class.vector.233, %class.svector.109, %class.svector.234, %class.svector.211, %class.svector.211, %class.svector.211, %class.svector.211, %class.svector.211, %class.svector.6, %class.svector.6, i32, %class.svector.15, %class.svector.6, i32, %class.svector.69, %class.svector.69, %class.svector.69, %class.svector.69, %class.svector.69, i32, double, %class.svector.211, %class.svector.211, %class.svector.211, %class.svector.221, i32, i32, i32, i32, i32, i32, %"struct.sat::backoff", i32, i32, %"struct.sat::backoff", %"struct.sat::backoff", %class.var_queue, i32, i32, i32, %class.ema, %class.ema, %class.ema, %class.ema, %class.ema, %class.svector.15, %class.svector.223, %"class.std::__cxx11::basic_string", i8, %class.visit_helper, %class.svector.240, %class.scoped_limit_trail, %class.stopwatch, %class.params_ref, %"struct.sat::no_drat_params", %class.scoped_ptr.231, %class.svector.15, %"class.sat::literal_set", %"class.sat::literal_set", %class.svector.15, i32, i32, i32, i32, i8, ptr, ptr, %class.statistics, i32, i32, i32, i32, i8, i32, i32, i32, i32, i32, i32, i32, double, i32, double, i8, i8, %class.svector.15, i8, %class.svector.69, i32, i32, i32, %class.svector.15, %class.svector.15, %class.svector.221, %class.svector.6, %class.approx_set_tpl, %class.svector.15, %class.svector.15, %class.vector.111, %class.svector.15, %class.svector.229, %class.u_map.246, %class.svector.15 }
%"class.sat::solver_core" = type { ptr, ptr }
%"struct.sat::config" = type <{ i64, i32, i32, i32, i8, [3 x i8], i32, i32, double, i32, i8, [3 x i8], i32, i8, [3 x i8], i32, [4 x i8], double, double, i32, i32, double, double, i32, [4 x i8], %class.symbol, double, i32, i32, i8, [3 x i8], i32, i32, i8, [3 x i8], i32, i8, [3 x i8], i32, i8, [3 x i8], i32, i8, i8, i8, i8, i32, i8, i8, i8, i8, i8, i8, i8, i8, i32, i8, i8, i8, i8, i32, double, i32, [4 x i8], double, double, double, double, i32, i8, i8, [2 x i8], double, i8, i8, [2 x i8], i32, double, i32, i32, i32, i32, i32, i32, i32, i32, i8, i8, i8, i8, i32, i32, i8, i8, i8, i8, i8, i8, i8, [5 x i8], %class.symbol, i8, i8, i8, i8, i8, i8, [2 x i8], i32, i32, i32, i8, [3 x i8], double, double, double, double, double, i8, [7 x i8] }>
%"struct.sat::stats" = type { i32, i32, i32, i32, i32, i32, i32, i32, i32, i32, i32, i32, i32, i32, i32, i32, i32, i32, i32, i32, i32 }
%class.scoped_ptr.202 = type { ptr }
%class.scoped_ptr.203 = type { ptr }
%"class.sat::drat" = type { ptr, %class.svector.204, ptr, %"class.sat::clause_allocator", ptr, ptr, %class.svector.206, %class.svector.208, %class.vector.111, %class.svector.109, i8, i8, i8, i8, i8, %"struct.sat::drat::stats" }
%class.svector.204 = type { %class.vector.205 }
%class.vector.205 = type { ptr }
%class.svector.206 = type { %class.vector.207 }
%class.vector.207 = type { ptr }
%class.svector.208 = type { %class.vector.209 }
%class.vector.209 = type { ptr }
%"struct.sat::drat::stats" = type { i32, i32, i32, i32 }
%"class.sat::cleaner" = type { ptr, i32, i32, i32, i32 }
%"class.sat::model_converter" = type { %class.vector.210, i32, %class.svector.211, ptr, %class.svector.213 }
%class.vector.210 = type { ptr }
%class.svector.213 = type { %class.vector.214 }
%class.vector.214 = type { ptr }
%"class.sat::simplifier" = type { ptr, i32, %"class.sat::use_list", %"class.sat::ext_use_list", %"class.sat::clause_set", %class.svector.219, i32, %class.tracked_uint_set, i8, %"class.sat::tmp_clause", %class.svector.221, i32, i32, i8, i8, i8, i8, i32, i8, i8, i32, i8, i32, i8, i8, i32, i32, i32, i32, i32, i32, i32, i32, i32, i32, i8, i32, i8, i8, i32, i32, i32, i32, i32, i32, i32, i32, i32, i32, i32, i8, i32, %class.ptr_vector.217, %class.svector.15, %class.svector.223, %class.svector.223, %class.svector.15 }
%"class.sat::use_list" = type { %class.vector.215 }
%class.vector.215 = type { ptr }
%"class.sat::ext_use_list" = type { %class.vector.216 }
%class.vector.216 = type { ptr }
%"class.sat::clause_set" = type { %class.svector.6, %class.ptr_vector.217 }
%class.svector.219 = type { %class.vector.220 }
%class.vector.220 = type { ptr }
%class.tracked_uint_set = type { %class.svector.221, %class.svector.6 }
%"class.sat::tmp_clause" = type { ptr }
%"class.sat::scc" = type { ptr, i8, i8, i32, i32, %"class.sat::big" }
%"class.sat::big" = type { ptr, i32, %class.vector.225, %class.svector.211, %class.svector.19, %class.svector.19, %class.svector.15, %class.svector.15, i8, i8, %class.vector.225 }
%class.vector.225 = type { ptr }
%"class.sat::asymm_branch" = type { ptr, %class.params_ref, i64, %class.random_gen, i32, i32, i8, i32, i32, i8, i8, i64, i32, i32, i32, %class.svector.15, %class.svector.15, %class.svector.226, %class.svector.226, %class.svector.15, %class.svector.15 }
%class.svector.226 = type { %class.vector.227 }
%class.vector.227 = type { ptr }
%"class.sat::probing" = type { ptr, i32, %"class.sat::literal_set", %class.svector.15, i32, i8, i32, i8, i8, i64, i32, %class.vector.228, %class.svector.229, %"class.sat::big" }
%class.vector.228 = type { ptr }
%"class.sat::mus" = type <{ ptr, %class.svector.15, %class.svector.15, i8, [7 x i8], %class.svector.109, i32, [4 x i8] }>
%"class.sat::binspr" = type <{ ptr, %class.scoped_ptr.231, i32, i32, %class.vector.232, i32, i32, %class.svector.211, %class.svector.211, %class.svector.15, %class.svector.15, i32, i32, i32, i32, i32, [4 x i32], [5 x i32], [5 x i32], [4 x i8] }>
%class.vector.232 = type { ptr }
%"class.sat::justification" = type <{ i32, [4 x i8], i64, i32, [4 x i8] }>
%class.ptr_vector.217 = type { %class.vector.218 }
%class.vector.218 = type { ptr }
%class.vector.233 = type { ptr }
%class.svector.234 = type { %class.vector.235 }
%class.vector.235 = type { ptr }
%class.svector.211 = type { %class.vector.212 }
%class.vector.212 = type { ptr }
%"struct.sat::backoff" = type { i32, i32, i32, i32, i32 }
%class.var_queue = type { %class.heap.236 }
%class.heap.236 = type { %"struct.var_queue<svector<unsigned int>>::lt", %class.svector.19, %class.svector.19 }
%"struct.var_queue<svector<unsigned int>>::lt" = type { ptr }
%class.ema = type { double, double, double, i32, i32 }
%class.svector.223 = type { %class.vector.224 }
%class.vector.224 = type { ptr }
%"class.std::__cxx11::basic_string" = type { %"struct.std::__cxx11::basic_string<char>::_Alloc_hider", i64, %union.anon }
%"struct.std::__cxx11::basic_string<char>::_Alloc_hider" = type { ptr }
%union.anon = type { i64, [8 x i8] }
%class.visit_helper = type { %class.svector.6, i32, i32 }
%class.svector.240 = type { %class.vector.241 }
%class.vector.241 = type { ptr }
%class.scoped_limit_trail = type { %class.svector.6, i32, i32 }
%class.params_ref = type { ptr }
%"struct.sat::no_drat_params" = type { %class.params_ref }
%class.scoped_ptr.231 = type { ptr }
%"class.sat::literal_set" = type { %class.tracked_uint_set }
%class.statistics = type { %class.svector.242, %class.svector.244 }
%class.svector.242 = type { %class.vector.243 }
%class.vector.243 = type { ptr }
%class.svector.244 = type { %class.vector.245 }
%class.vector.245 = type { ptr }
%class.svector.221 = type { %class.vector.222 }
%class.vector.222 = type { ptr }
%class.svector.229 = type { %class.vector.230 }
%class.vector.230 = type { ptr }
%class.u_map.246 = type { %class.map.247 }
%class.map.247 = type { %class.table2map.248 }
%class.table2map.248 = type { %class.core_hashtable.249 }
%class.core_hashtable.249 = type <{ ptr, i32, i32, i32, [4 x i8] }>

; Function Attrs: mustprogress nounwind uwtable
define linkonce_odr hidden noundef i32 @_ZNK6vectorIN3sat13justificationELb0EjE4sizeEv(ptr noundef nonnull align 8 dereferenceable(8) %this) #4 comdat align 2 {
entry:
  %retval = alloca i32, align 4
  %this.addr = alloca ptr, align 8
  store ptr %this, ptr %this.addr, align 8
  %this1 = load ptr, ptr %this.addr, align 8
  %m_data = getelementptr inbounds %class.vector.235, ptr %this1, i32 0, i32 0
  %0 = load ptr, ptr %m_data, align 8
  %cmp = icmp eq ptr %0, null
  br i1 %cmp, label %if.then, label %if.end

if.then:                                          ; preds = %entry
  store i32 0, ptr %retval, align 4
  br label %return

if.end:                                           ; preds = %entry
  %m_data2 = getelementptr inbounds %class.vector.235, ptr %this1, i32 0, i32 0
  %1 = load ptr, ptr %m_data2, align 8
  %arrayidx = getelementptr inbounds i32, ptr %1, i64 -1
  %2 = load i32, ptr %arrayidx, align 4
  store i32 %2, ptr %retval, align 4
  br label %return

return:                                           ; preds = %if.end, %if.then
  %3 = load i32, ptr %retval, align 4
  ret i32 %3
}

; Function Attrs: mustprogress uwtable
define linkonce_odr hidden noundef i32 @_ZNK3sat6solver8num_varsEv(ptr noundef nonnull align 8 dereferenceable(4408) %this) #5 comdat align 2 {
entry:
  %this.addr = alloca ptr, align 8
  store ptr %this, ptr %this.addr, align 8
  %this1 = load ptr, ptr %this.addr, align 8
  %m_justification = getelementptr inbounds %"class.sat::solver", ptr %this1, i32 0, i32 38
  %call = call noundef i32 @_ZNK6vectorIN3sat13justificationELb0EjE4sizeEv(ptr noundef nonnull align 8 dereferenceable(8) %m_justification)
  ret i32 %call
}

; Function Attrs: mustprogress nounwind uwtable
define linkonce_odr hidden noundef nonnull align 8 dereferenceable(4408) ptr @_ZN3sat9extension1sEv(ptr noundef nonnull align 8 dereferenceable(32) %this) #4 comdat align 2 {
entry:
  %this.addr = alloca ptr, align 8
  store ptr %this, ptr %this.addr, align 8
  %this1 = load ptr, ptr %this.addr, align 8
  %m_solver = getelementptr inbounds %"class.sat::extension", ptr %this1, i32 0, i32 4
  %0 = load ptr, ptr %m_solver, align 8
  ret ptr %0
}

; Function Attrs: mustprogress uwtable
define hidden void @_ZN5arith3sls10on_restartEv(ptr noundef nonnull align 8 dereferenceable(97) %this) unnamed_addr #5 align 2 {
entry:
  %this.addr = alloca ptr, align 8
  %v = alloca i32, align 4
  store ptr %this, ptr %this.addr, align 8
  %this1 = load ptr, ptr %this.addr, align 8
  store i32 0, ptr %v, align 4
  br label %for.cond

for.cond:                                         ; preds = %for.inc, %entry
  %0 = load i32, ptr %v, align 4
  %s = getelementptr inbounds %"class.arith::sls", ptr %this1, i32 0, i32 1
  %1 = load ptr, ptr %s, align 8
  %call = call noundef nonnull align 8 dereferenceable(4408) ptr @_ZN3sat9extension1sEv(ptr noundef nonnull align 8 dereferenceable(32) %1)
  %call2 = call noundef i32 @_ZNK3sat6solver8num_varsEv(ptr noundef nonnull align 8 dereferenceable(4408) %call)
  %cmp = icmp ult i32 %0, %call2
  br i1 %cmp, label %for.body, label %for.end

for.body:                                         ; preds = %for.cond
  %2 = load i32, ptr %v, align 4
  call void @_ZN5arith3sls24init_bool_var_assignmentEj(ptr noundef nonnull align 8 dereferenceable(97) %this1, i32 noundef %2)
  br label %for.inc

for.inc:                                          ; preds = %for.body
  %3 = load i32, ptr %v, align 4
  %inc = add i32 %3, 1
  store i32 %inc, ptr %v, align 4
  br label %for.cond, !llvm.loop !12

for.end:                                          ; preds = %for.cond
  call void @_ZN5arith3sls11check_ineqsEv(ptr noundef nonnull align 8 dereferenceable(97) %this1)
  ret void
}