; Function Attrs: mustprogress uwtable
define hidden void @_ZN5arith3sls10on_restartEv(ptr nocapture noundef nonnull readonly align 8 dereferenceable(97) %this) unnamed_addr #5 align 2 {
entry:
  %s = getelementptr inbounds i8, ptr %this, i64 8
  br label %for.cond

for.cond:                                         ; preds = %for.body, %entry
  %v.0 = phi i32 [ 0, %entry ], [ %inc, %for.body ]
  %0 = load ptr, ptr %s, align 8
  %m_solver.i = getelementptr inbounds i8, ptr %0, i64 24
  %1 = load ptr, ptr %m_solver.i, align 8
  %m_justification.i = getelementptr inbounds i8, ptr %1, i64 3448
  %2 = load ptr, ptr %m_justification.i, align 8
  %cmp.i.i = icmp eq ptr %2, null
  br i1 %cmp.i.i, label %_ZNK3sat6solver8num_varsEv.exit, label %if.end.i.i

if.end.i.i:                                       ; preds = %for.cond
  %arrayidx.i.i = getelementptr inbounds i8, ptr %2, i64 -4
  %3 = load i32, ptr %arrayidx.i.i, align 4
  br label %_ZNK3sat6solver8num_varsEv.exit

_ZNK3sat6solver8num_varsEv.exit:                  ; preds = %for.cond, %if.end.i.i
  %retval.0.i.i = phi i32 [ %3, %if.end.i.i ], [ 0, %for.cond ]
  %cmp = icmp ult i32 %v.0, %retval.0.i.i
  br i1 %cmp, label %for.body, label %for.end

for.body:                                         ; preds = %_ZNK3sat6solver8num_varsEv.exit
  tail call void @_ZN5arith3sls24init_bool_var_assignmentEj(ptr noundef nonnull align 8 dereferenceable(97) %this, i32 noundef %v.0)
  %inc = add nuw i32 %v.0, 1
  br label %for.cond, !llvm.loop !17

for.end:                                          ; preds = %_ZNK3sat6solver8num_varsEv.exit
  tail call void @_ZN5arith3sls11check_ineqsEv(ptr noundef nonnull align 8 dereferenceable(97) %this)
  ret void
}